target datalayout = "e-m:e-p270:32:32-p271:32:32-p272:64:64-i64:64-i128:128-f80:128-n8:16:32:64-S128"
target triple = "x86_64-pc-linux-gnu"

%struct.test_fixture = type { ptr, ptr, i32, i32, i32, ptr, i32, ptr }

@newkey = internal global ptr null, align 8
@.str.14 = private unnamed_addr constant [31 x i8] c"../openssl/test/cmp_msg_test.c\00", align 1
@.str.28 = private unnamed_addr constant [26 x i8] c"test_cmp_create_error_msg\00", align 1
@.str.45 = private unnamed_addr constant [39 x i8] c"set1_newPkey(fixture->cmp_ctx, newkey)\00", align 1
@.str.51 = private unnamed_addr constant [25 x i8] c"valid_asn1_encoding(msg)\00", align 1
@stderr = external global ptr, align 8
@.str.59 = private unnamed_addr constant [91 x i8] c"msg = (ossl_cmp_error_new(fixture->cmp_ctx, fixture->si, fixture->err_code, \22details\22, 0))\00", align 1
@.str.60 = private unnamed_addr constant [8 x i8] c"details\00", align 1

; Function Attrs: nounwind uwtable
define internal i32 @execute_errormsg_create_test(ptr noundef %0) #0 {
  %2 = alloca ptr, align 8
  %3 = alloca ptr, align 8
  %4 = alloca i32, align 4
  store ptr %0, ptr %2, align 8, !tbaa !17
  br label %5

5:                                                ; preds = %1
  call void @llvm.lifetime.start.p0(i64 8, ptr %3) #4
  store ptr null, ptr %3, align 8, !tbaa !38
  call void @llvm.lifetime.start.p0(i64 4, ptr %4) #4
  %6 = load ptr, ptr %2, align 8, !tbaa !17
  %7 = getelementptr inbounds nuw %struct.test_fixture, ptr %6, i32 0, i32 6
  %8 = load i32, ptr %7, align 8, !tbaa !27
  %9 = icmp ne i32 %8, 0
  br i1 %9, label %10, label %34

10:                                               ; preds = %5
  %11 = load ptr, ptr %2, align 8, !tbaa !17
  %12 = getelementptr inbounds nuw %struct.test_fixture, ptr %11, i32 0, i32 1
  %13 = load ptr, ptr %12, align 8, !tbaa !28
  %14 = load ptr, ptr %2, align 8, !tbaa !17
  %15 = getelementptr inbounds nuw %struct.test_fixture, ptr %14, i32 0, i32 7
  %16 = load ptr, ptr %15, align 8, !tbaa !30
  %17 = load ptr, ptr %2, align 8, !tbaa !17
  %18 = getelementptr inbounds nuw %struct.test_fixture, ptr %17, i32 0, i32 3
  %19 = load i32, ptr %18, align 4, !tbaa !26
  %20 = sext i32 %19 to i64
  %21 = call ptr @ossl_cmp_error_new(ptr noundef %13, ptr noundef %16, i64 noundef %20, ptr noundef @.str.60, i32 noundef 0)
  store ptr %21, ptr %3, align 8, !tbaa !38
  %22 = call i32 @test_ptr(ptr noundef @.str.14, i32 noundef 99, ptr noundef @.str.59, ptr noundef %21)
  %23 = icmp ne i32 %22, 0
  br i1 %23, label %24, label %31

24:                                               ; preds = %10
  %25 = load ptr, ptr %3, align 8, !tbaa !38
  %26 = call i32 @valid_asn1_encoding(ptr noundef %25)
  %27 = icmp ne i32 %26, 0
  %28 = zext i1 %27 to i32
  %29 = call i32 @test_true(ptr noundef @.str.14, i32 noundef 99, ptr noundef @.str.51, i32 noundef %28)
  %30 = icmp ne i32 %29, 0
  br label %31

31:                                               ; preds = %24, %10
  %32 = phi i1 [ false, %10 ], [ %30, %24 ]
  %33 = zext i1 %32 to i32
  br label %47

34:                                               ; preds = %5
  %35 = load ptr, ptr %2, align 8, !tbaa !17
  %36 = getelementptr inbounds nuw %struct.test_fixture, ptr %35, i32 0, i32 1
  %37 = load ptr, ptr %36, align 8, !tbaa !28
  %38 = load ptr, ptr %2, align 8, !tbaa !17
  %39 = getelementptr inbounds nuw %struct.test_fixture, ptr %38, i32 0, i32 7
  %40 = load ptr, ptr %39, align 8, !tbaa !30
  %41 = load ptr, ptr %2, align 8, !tbaa !17
  %42 = getelementptr inbounds nuw %struct.test_fixture, ptr %41, i32 0, i32 3
  %43 = load i32, ptr %42, align 4, !tbaa !26
  %44 = sext i32 %43 to i64
  %45 = call ptr @ossl_cmp_error_new(ptr noundef %37, ptr noundef %40, i64 noundef %44, ptr noundef @.str.60, i32 noundef 0)
  store ptr %45, ptr %3, align 8, !tbaa !38
  %46 = call i32 @test_ptr_null(ptr noundef @.str.14, i32 noundef 99, ptr noundef @.str.59, ptr noundef %45)
  br label %47

47:                                               ; preds = %34, %31
  %48 = phi i32 [ %33, %31 ], [ %46, %34 ]
  store i32 %48, ptr %4, align 4, !tbaa !19
  %49 = load ptr, ptr %3, align 8, !tbaa !38
  call void @OSSL_CMP_MSG_free(ptr noundef %49)
  %50 = load ptr, ptr @stderr, align 8, !tbaa !39
  call void @ERR_print_errors_fp(ptr noundef %50)
  %51 = load i32, ptr %4, align 4, !tbaa !19
  call void @llvm.lifetime.end.p0(i64 4, ptr %4) #4
  call void @llvm.lifetime.end.p0(i64 8, ptr %3) #4
  br label %52

52:                                               ; preds = %47
  ret i32 %51
}

; Function Attrs: nounwind uwtable
define internal void @tear_down(ptr noundef %0) #0 {
  %2 = alloca ptr, align 8
  store ptr %0, ptr %2, align 8, !tbaa !17
  %3 = load ptr, ptr %2, align 8, !tbaa !17
  %4 = getelementptr inbounds nuw %struct.test_fixture, ptr %3, i32 0, i32 1
  %5 = load ptr, ptr %4, align 8, !tbaa !28
  call void @OSSL_CMP_CTX_free(ptr noundef %5)
  %6 = load ptr, ptr %2, align 8, !tbaa !17
  %7 = getelementptr inbounds nuw %struct.test_fixture, ptr %6, i32 0, i32 5
  %8 = load ptr, ptr %7, align 8, !tbaa !37
  call void @OSSL_CMP_MSG_free(ptr noundef %8)
  %9 = load ptr, ptr %2, align 8, !tbaa !17
  %10 = getelementptr inbounds nuw %struct.test_fixture, ptr %9, i32 0, i32 7
  %11 = load ptr, ptr %10, align 8, !tbaa !30
  call void @OSSL_CMP_PKISI_free(ptr noundef %11)
  %12 = load ptr, ptr %2, align 8, !tbaa !17
  call void @CRYPTO_free(ptr noundef %12, ptr noundef @.str.14, i32 noundef 43)
  ret void
}

; Function Attrs: nounwind uwtable
define internal i32 @set1_newPkey(ptr noundef %0, ptr noundef %1) #0 {
  %3 = alloca i32, align 4
  %4 = alloca ptr, align 8
  %5 = alloca ptr, align 8
  store ptr %0, ptr %4, align 8, !tbaa !29
  store ptr %1, ptr %5, align 8, !tbaa !4
  %6 = load ptr, ptr %5, align 8, !tbaa !4
  %7 = call i32 @EVP_PKEY_up_ref(ptr noundef %6)
  %8 = icmp ne i32 %7, 0
  br i1 %8, label %10, label %9

9:                                                ; preds = %2
  store i32 0, ptr %3, align 4
  br label %18

10:                                               ; preds = %2
  %11 = load ptr, ptr %4, align 8, !tbaa !29
  %12 = load ptr, ptr %5, align 8, !tbaa !4
  %13 = call i32 @OSSL_CMP_CTX_set0_newPkey(ptr noundef %11, i32 noundef 1, ptr noundef %12)
  %14 = icmp ne i32 %13, 0
  br i1 %14, label %17, label %15

15:                                               ; preds = %10
  %16 = load ptr, ptr %5, align 8, !tbaa !4
  call void @EVP_PKEY_free(ptr noundef %16)
  store i32 0, ptr %3, align 4
  br label %18

17:                                               ; preds = %10
  store i32 1, ptr %3, align 4
  br label %18

18:                                               ; preds = %17, %15, %9
  %19 = load i32, ptr %3, align 4
  ret i32 %19
}

; Function Attrs: nounwind uwtable
define internal i32 @test_cmp_create_error_msg() #0 {
  %1 = alloca i32, align 4
  %2 = alloca ptr, align 8
  %3 = alloca i32, align 4
  %4 = alloca i32, align 4
  call void @llvm.lifetime.start.p0(i64 8, ptr %2) #4
  %5 = call ptr @set_up(ptr noundef @.str.28)
  store ptr %5, ptr %2, align 8, !tbaa !17
  call void @llvm.lifetime.start.p0(i64 4, ptr %3) #4
  store i32 0, ptr %3, align 4, !tbaa !19
  %6 = load ptr, ptr %2, align 8, !tbaa !17
  %7 = icmp eq ptr %6, null
  br i1 %7, label %8, label %9

8:                                                ; preds = %0
  store i32 0, ptr %1, align 4
  store i32 1, ptr %4, align 4
  br label %37

9:                                                ; preds = %0
  %10 = call ptr @OSSL_CMP_STATUSINFO_new(i32 noundef 2, i32 noundef 25, ptr noundef null)
  %11 = load ptr, ptr %2, align 8, !tbaa !17
  %12 = getelementptr inbounds nuw %struct.test_fixture, ptr %11, i32 0, i32 7
  store ptr %10, ptr %12, align 8, !tbaa !30
  %13 = load ptr, ptr %2, align 8, !tbaa !17
  %14 = getelementptr inbounds nuw %struct.test_fixture, ptr %13, i32 0, i32 3
  store i32 -1, ptr %14, align 4, !tbaa !26
  %15 = load ptr, ptr %2, align 8, !tbaa !17
  %16 = getelementptr inbounds nuw %struct.test_fixture, ptr %15, i32 0, i32 6
  store i32 1, ptr %16, align 8, !tbaa !27
  %17 = load ptr, ptr %2, align 8, !tbaa !17
  %18 = getelementptr inbounds nuw %struct.test_fixture, ptr %17, i32 0, i32 1
  %19 = load ptr, ptr %18, align 8, !tbaa !28
  %20 = load ptr, ptr @newkey, align 8, !tbaa !4
  %21 = call i32 @set1_newPkey(ptr noundef %19, ptr noundef %20)
  %22 = icmp ne i32 %21, 0
  %23 = zext i1 %22 to i32
  %24 = call i32 @test_true(ptr noundef @.str.14, i32 noundef 334, ptr noundef @.str.45, i32 noundef %23)
  %25 = icmp ne i32 %24, 0
  br i1 %25, label %28, label %26

26:                                               ; preds = %9
  %27 = load ptr, ptr %2, align 8, !tbaa !17
  call void @tear_down(ptr noundef %27)
  store ptr null, ptr %2, align 8, !tbaa !17
  br label %28

28:                                               ; preds = %26, %9
  %29 = load ptr, ptr %2, align 8, !tbaa !17
  %30 = icmp ne ptr %29, null
  br i1 %30, label %31, label %35

31:                                               ; preds = %28
  %32 = load ptr, ptr %2, align 8, !tbaa !17
  %33 = call i32 @execute_errormsg_create_test(ptr noundef %32)
  store i32 %33, ptr %3, align 4, !tbaa !19
  %34 = load ptr, ptr %2, align 8, !tbaa !17
  call void @tear_down(ptr noundef %34)
  br label %35

35:                                               ; preds = %31, %28
  %36 = load i32, ptr %3, align 4, !tbaa !19
  store i32 %36, ptr %1, align 4
  store i32 1, ptr %4, align 4
  br label %37

37:                                               ; preds = %35, %8
  call void @llvm.lifetime.end.p0(i64 4, ptr %3) #4
  call void @llvm.lifetime.end.p0(i64 8, ptr %2) #4
  %38 = load i32, ptr %1, align 4
  ret i32 %38
}