; Function Attrs: nounwind uwtable
define internal i32 @test_cmp_create_error_msg() #0 {
  %1 = tail call fastcc ptr @set_up(ptr noundef nonnull @.str.28)
  %2 = icmp eq ptr %1, null
  br i1 %2, label %40, label %3

3:                                                ; preds = %0
  %4 = tail call ptr @OSSL_CMP_STATUSINFO_new(i32 noundef 2, i32 noundef 25, ptr noundef null) #4
  %5 = getelementptr inbounds nuw i8, ptr %1, i64 48
  store ptr %4, ptr %5, align 8, !tbaa !27
  %6 = getelementptr inbounds nuw i8, ptr %1, i64 20
  store i32 -1, ptr %6, align 4, !tbaa !23
  %7 = getelementptr inbounds nuw i8, ptr %1, i64 40
  store i32 1, ptr %7, align 8, !tbaa !24
  %8 = getelementptr inbounds nuw i8, ptr %1, i64 8
  %9 = load ptr, ptr %8, align 8, !tbaa !25
  %10 = load ptr, ptr @newkey, align 8, !tbaa !4
  %11 = tail call i32 @EVP_PKEY_up_ref(ptr noundef %10) #4
  %.not.i = icmp eq i32 %11, 0
  br i1 %.not.i, label %set1_newPkey.exit, label %12

12:                                               ; preds = %3
  %13 = tail call i32 @OSSL_CMP_CTX_set0_newPkey(ptr noundef %9, i32 noundef 1, ptr noundef %10) #4
  %.not4.i = icmp eq i32 %13, 0
  br i1 %.not4.i, label %14, label %set1_newPkey.exit

14:                                               ; preds = %12
  tail call void @EVP_PKEY_free(ptr noundef %10) #4
  br label %set1_newPkey.exit

set1_newPkey.exit:                                ; preds = %3, %12, %14
  %.0.i = phi i32 [ 0, %14 ], [ 0, %3 ], [ 1, %12 ]
  %15 = tail call i32 @test_true(ptr noundef nonnull @.str.14, i32 noundef 334, ptr noundef nonnull @.str.45, i32 noundef %.0.i) #4
  %.not = icmp eq i32 %15, 0
  br i1 %.not, label %.sink.split, label %16

16:                                               ; preds = %set1_newPkey.exit
  %17 = load i32, ptr %7, align 8, !tbaa !24
  %.not.i14 = icmp eq i32 %17, 0
  %18 = load ptr, ptr %8, align 8, !tbaa !25
  %19 = load ptr, ptr %5, align 8, !tbaa !27
  %20 = load i32, ptr %6, align 4, !tbaa !23
  %21 = sext i32 %20 to i64
  %22 = tail call ptr @ossl_cmp_error_new(ptr noundef %18, ptr noundef %19, i64 noundef %21, ptr noundef nonnull @.str.60, i32 noundef 0) #4
  br i1 %.not.i14, label %32, label %23

23:                                               ; preds = %16
  %24 = tail call i32 @test_ptr(ptr noundef nonnull @.str.14, i32 noundef 99, ptr noundef nonnull @.str.59, ptr noundef %22) #4
  %.not9.i = icmp eq i32 %24, 0
  br i1 %.not9.i, label %execute_errormsg_create_test.exit, label %25

25:                                               ; preds = %23
  %26 = tail call i32 @valid_asn1_encoding(ptr noundef %22) #4
  %27 = icmp ne i32 %26, 0
  %28 = zext i1 %27 to i32
  %29 = tail call i32 @test_true(ptr noundef nonnull @.str.14, i32 noundef 99, ptr noundef nonnull @.str.51, i32 noundef %28) #4
  %30 = icmp ne i32 %29, 0
  %31 = zext i1 %30 to i32
  br label %execute_errormsg_create_test.exit

32:                                               ; preds = %16
  %33 = tail call i32 @test_ptr_null(ptr noundef nonnull @.str.14, i32 noundef 99, ptr noundef nonnull @.str.59, ptr noundef %22) #4
  br label %execute_errormsg_create_test.exit

execute_errormsg_create_test.exit:                ; preds = %23, %25, %32
  %34 = phi i32 [ %33, %32 ], [ %31, %25 ], [ 0, %23 ]
  tail call void @OSSL_CMP_MSG_free(ptr noundef %22) #4
  %35 = load ptr, ptr @stderr, align 8, !tbaa !28
  tail call void @ERR_print_errors_fp(ptr noundef %35) #4
  br label %.sink.split

.sink.split:                                      ; preds = %set1_newPkey.exit, %execute_errormsg_create_test.exit
  %.011.ph = phi i32 [ %34, %execute_errormsg_create_test.exit ], [ 0, %set1_newPkey.exit ]
  %36 = load ptr, ptr %8, align 8, !tbaa !25
  tail call void @OSSL_CMP_CTX_free(ptr noundef %36) #4
  %37 = getelementptr inbounds nuw i8, ptr %1, i64 32
  %38 = load ptr, ptr %37, align 8, !tbaa !26
  tail call void @OSSL_CMP_MSG_free(ptr noundef %38) #4
  %39 = load ptr, ptr %5, align 8, !tbaa !27
  tail call void @OSSL_CMP_PKISI_free(ptr noundef %39) #4
  tail call void @CRYPTO_free(ptr noundef nonnull %1, ptr noundef nonnull @.str.14, i32 noundef 43) #4
  br label %40

40:                                               ; preds = %.sink.split, %0
  %.011 = phi i32 [ 0, %0 ], [ %.011.ph, %.sink.split ]
  ret i32 %.011
}